; Function Attrs: mustprogress uwtable
define noundef i32 @_ZNK6icu_757UVector7indexOfEii(ptr nocapture noundef nonnull readonly align 8 dereferenceable(40) %this, i32 noundef %obj, i32 noundef %startIndex) local_unnamed_addr #1 align 2 {
entry:
  %key.sroa.0.0.insert.ext = zext i32 %obj to i64
  %0 = inttoptr i64 %key.sroa.0.0.insert.ext to ptr
  %comparer.i = getelementptr inbounds i8, ptr %this, i64 32
  %1 = load ptr, ptr %comparer.i, align 8
  %cmp.not.i = icmp eq ptr %1, null
  %count10.i = getelementptr inbounds i8, ptr %this, i64 8
  %2 = load i32, ptr %count10.i, align 8
  %cmp1115.i = icmp sgt i32 %2, %startIndex
  br i1 %cmp.not.i, label %for.cond9.preheader.i, label %for.cond.preheader.i

for.cond.preheader.i:                             ; preds = %entry
  br i1 %cmp1115.i, label %for.body.lr.ph.i, label %_ZNK6icu_757UVector7indexOfE8UElementia.exit

for.body.lr.ph.i:                                 ; preds = %for.cond.preheader.i
  %elements.i = getelementptr inbounds i8, ptr %this, i64 16
  %3 = sext i32 %startIndex to i64
  br label %for.body.i

for.cond9.preheader.i:                            ; preds = %entry
  br i1 %cmp1115.i, label %for.body12.lr.ph.i, label %_ZNK6icu_757UVector7indexOfE8UElementia.exit

for.body12.lr.ph.i:                               ; preds = %for.cond9.preheader.i
  %elements15.i = getelementptr inbounds i8, ptr %this, i64 16
  %4 = load ptr, ptr %elements15.i, align 8
  %5 = sext i32 %startIndex to i64
  %wide.trip.count32.i = sext i32 %2 to i64
  br label %for.body12.us.i

for.body12.us.i:                                  ; preds = %for.inc29.us.i, %for.body12.lr.ph.i
  %indvars.iv29.i = phi i64 [ %indvars.iv.next30.i, %for.inc29.us.i ], [ %5, %for.body12.lr.ph.i ]
  %arrayidx24.us.i = getelementptr inbounds %union.UElement, ptr %4, i64 %indvars.iv29.i
  %6 = load i32, ptr %arrayidx24.us.i, align 8
  %cmp25.us.i = icmp eq i32 %6, %obj
  br i1 %cmp25.us.i, label %return.loopexit.split.loop.exit42.i, label %for.inc29.us.i

for.inc29.us.i:                                   ; preds = %for.body12.us.i
  %indvars.iv.next30.i = add nsw i64 %indvars.iv29.i, 1
  %exitcond33.not.i = icmp eq i64 %indvars.iv.next30.i, %wide.trip.count32.i
  br i1 %exitcond33.not.i, label %_ZNK6icu_757UVector7indexOfE8UElementia.exit, label %for.body12.us.i, !llvm.loop !14

for.body.i:                                       ; preds = %for.inc.i, %for.body.lr.ph.i
  %indvars.iv.i = phi i64 [ %3, %for.body.lr.ph.i ], [ %indvars.iv.next.i, %for.inc.i ]
  %7 = load ptr, ptr %comparer.i, align 8
  %8 = load ptr, ptr %elements.i, align 8
  %arrayidx.i = getelementptr inbounds %union.UElement, ptr %8, i64 %indvars.iv.i
  %agg.tmp4.sroa.0.0.copyload.i = load ptr, ptr %arrayidx.i, align 8
  %call.i = tail call noundef signext i8 %7(ptr %0, ptr %agg.tmp4.sroa.0.0.copyload.i)
  %tobool.not.i = icmp eq i8 %call.i, 0
  br i1 %tobool.not.i, label %for.inc.i, label %return.loopexit36.split.loop.exit38.i

for.inc.i:                                        ; preds = %for.body.i
  %indvars.iv.next.i = add nsw i64 %indvars.iv.i, 1
  %9 = load i32, ptr %count10.i, align 8
  %10 = sext i32 %9 to i64
  %cmp2.i = icmp slt i64 %indvars.iv.next.i, %10
  br i1 %cmp2.i, label %for.body.i, label %_ZNK6icu_757UVector7indexOfE8UElementia.exit, !llvm.loop !17

return.loopexit.split.loop.exit42.i:              ; preds = %for.body12.us.i
  %11 = trunc i64 %indvars.iv29.i to i32
  br label %_ZNK6icu_757UVector7indexOfE8UElementia.exit

return.loopexit36.split.loop.exit38.i:            ; preds = %for.body.i
  %12 = trunc i64 %indvars.iv.i to i32
  br label %_ZNK6icu_757UVector7indexOfE8UElementia.exit

_ZNK6icu_757UVector7indexOfE8UElementia.exit:     ; preds = %for.inc.i, %for.inc29.us.i, %for.cond.preheader.i, %for.cond9.preheader.i, %return.loopexit.split.loop.exit42.i, %return.loopexit36.split.loop.exit38.i
  %retval.0.i = phi i32 [ -1, %for.cond9.preheader.i ], [ -1, %for.cond.preheader.i ], [ %11, %return.loopexit.split.loop.exit42.i ], [ %12, %return.loopexit36.split.loop.exit38.i ], [ -1, %for.inc29.us.i ], [ -1, %for.inc.i ]
  ret i32 %retval.0.i
}